(lp1
(dp2
S'ModulePrevious'
p3
S'MA_41_Prog'
p4
sS'ModuleCurrent'
p5
S'Horizon_Prog'
p6
sS'Version'
p7
I1
sS'Geometry'
p8
S'1919x1008+-8+0'
p9
sS'ProjectName'
p10
g6
sS'ImportTypes'
p11
(lp12
(S'Pmw'
p13
S'import'
p14
tp15
a(S'Tkinter'
p16
S'from'
p17
tp18
asS'EditorWidths'
p19
((lp20
I132
aI132
a(lp21
I132
aI132
a(lp22
I130
aI130
atp23
sS'ID'
p24
S'Rapyd Project'
p25
sS'ParkingLot'
p26
(dp27
S'SelectedWidreq'
p28
NsS'Widreqs'
p29
(lp30
ssa(dp31
S'PreviousForm'
p32
S'Horizon_Prog'
p33
sS'OnTab'
p34
I1
sS'-Main-'
p35
(dp36
S'Cursor'
p37
S'31.18'
p38
sS'Text'
p39
(lp40
S''
aS'#!/usr/bin/python\n#coding=utf8\n\n\n'
p41
aS'import rpErrorHandler\nfrom Tkinter import *\n'
p42
aS'\nconnected=0\n\n    \n    \ndef loopproc():             \n #    read_and_print(0)\n #    setup_ip_mac_etc() \n     Root.after(COMtimeout,loopproc) \n\n\n    \n\ndef sshsend(s):\n        ssh.send(s)\n        ssh.send(\'\\n\') \n        time.sleep(0.5)        \n        App._ReceivedText.insert(\'1.0\', ssh.recv(16384))\n        \ndef last_octet_ip():\n        n=str(App.serial_number.get())[-2:]\n        if n==\'01\':\n            n=\'101\'\n        if n==\'00\':\n            n=\'100\'\n        \n        return n\n \n\n\ntry:\n    #--------------------------------------------------------------------------#\n    # User code should go after this comment so it is inside the "try".        #\n    #     This allows rpErrorHandler to gain control on an error so it         #\n    #     can properly display a Rapyd-aware error message.                    #\n    #--------------------------------------------------------------------------#\n\n    #Adjust sys.path so we can find other modules of this project\n   \n   \n\n    \n    \n    \n    if \'.\' not in sys.path:\n        sys.path.append(\'.\')\n    #Put lines to import other modules of this project here\n \n    import subprocess\n    import os\n    import shlex\n    import sys\n    import paramiko    \n    import serial\n    import msvcrt\n    import time\n    import math\n    import tkMessageBox as mbox\n \n \n    \n    if __name__ == \'__main__\':\n'
p43
aS"        Root = Tk()\n        import Tkinter\n        Tkinter.CallWrapper = rpErrorHandler.CallWrapper\n        del Tkinter\n        App = Horizon_Prog(Root)\n        App.pack(expand='yes',fill='both')\n"
p44
aS"        Root.geometry('800x750+10+10')\n        Root.title('Horizon test')\n\n        \n\n\n        \n        Root.mainloop()\n    #--------------------------------------------------------------------------#\n    # User code should go above this comment.                                  #\n    #--------------------------------------------------------------------------#\nexcept:\n    rpErrorHandler.RunError()"
p45
asg7
I0
sS'Sha'
p46
I995455
ssS'Forms'
p47
(lp48
(dp49
S'Requested'
p50
g39
sS'Name'
p51
g33
sg28
S'_dev_remove'
p52
sS'Type'
p53
S'Tkinter.Frame'
p54
sS'Lines'
p55
(lp56
(lp57
I9854
aI4994
aI1
aa(lp58
I2518
aI4994
aI1
aa(lp59
I1256
aI1125
aI0
aa(lp60
I1256
aI3386
aI0
aa(lp61
I1256
aI2769
aI0
aa(lp62
I2093
aI3071
aI1
aa(lp63
I6183
aI5502
aI0
aa(lp64
I6183
aI4135
aI0
aa(lp65
I6183
aI1729
aI0
aa(lp66
I4424
aI2926
aI1
aasg39
(dp67
g37
S'171.0'
p68
sg39
(lp69
S'#------------------------------------------------------------------------------#\n#                                                                              #\n#                                 Horizon_Prog                                 #\n#                                                                              #\n#------------------------------------------------------------------------------#\nclass Horizon_Prog(Frame):\n    def __init__(self,Master=None,*pos,**kw):\n'
p70
aS'        #\n        #Your code here\n        #    \n'
p71
aV\u000a        apply(Frame.__init__,(self,Master),kw)\u000a        self.entry_first_num = StringVar()\u000a        self.entry_last_num = StringVar()\u000a        self.serial_number = StringVar()\u000a        self.text_to_send = StringVar()\u000a        self.text_to_send2 = StringVar()\u000a        self._Frame2 = Frame(self)\u000a        self._Frame2.pack(fill='y',side='left')\u000a        self._Frame4 = Frame(self,background='#dbdbdb')\u000a        self._Frame4.pack(fill='y',side='left')\u000a        self._Frame3 = Frame(self)\u000a        self._Frame3.pack(side='left')\u000a        self._Frame27 = Frame(self._Frame2)\u000a        self._Frame27.pack(side='top')\u000a        self._Label1 = Label(self._Frame27,text='\u0412\u044b\u0431\u0435\u0440\u0435\u0442\u0435 \u043a\u0430\u0441\u0441\u0435\u0442\u0443')\u000a        self._Label1.pack(side='top')\u000a        self._CassList = Listbox(self._Frame27,selectmode='single')\u000a        self._CassList.pack(side='top')\u000a        self._SSH_connect = Button(self._Frame27\u000a            ,command=self._on__SSH_connect_command,text='\u041f\u043e\u0434\u043a\u043b\u044e\u0447\u0438\u0442\u044c\u0441\u044f')\u000a        self._SSH_connect.pack(side='bottom')\u000a        self._Frame6 = Frame(self._Frame2)\u000a        self._Frame6.pack(side='top')\u000a        self._Label2 = Label(self._Frame6,text='MAC \u041b\u0421\u04201:')\u000a        self._Label2.pack(side='right')\u000a        self._Frame5 = Frame(self._Frame2)\u000a        self._Frame5.pack(side='top')\u000a        self._Frame1 = Frame(self._Frame2)\u000a        self._Frame1.pack(fill='x',side='top')\u000a        self._dev_add = Button(self._Frame1,command=self._on__dev_add\u000a            ,state='disabled',text='\u042d\u0442\u0430\u043f 1 dev add')\u000a        self._dev_add.pack(fill='x',side='top')\u000a        self._pos_tst = Button(self._Frame1,command=self._on__pos_tst_command\u000a            ,text='\u042d\u0442\u0430\u043f 2 pos tst')\u000a        self._pos_tst.pack(fill='x',side='top')\u000a        self._dev_remove = Button(self._Frame1\u000a            ,command=self._on__dev_remove_command,state='disabled'\u000a            ,text='\u042d\u0442\u0430\u043f 3 dev remove')\u000a        self._dev_remove.pack(fill='x',side='top')\u000a        self._Frame29 = Frame(self._Frame4)\u000a        self._Frame29.pack(side='top')\u000a        self._Label4 = Label(self._Frame29,text='\u0412\u0432\u0435\u0434\u0438\u0442\u0435 \u043a\u043e\u043c\u0430\u043d\u0434\u0443 \u0434\u043b\u044f \u043e\u0442\u043f\u0440\u0430\u0432\u043a\u0438:')\u000a        self._Label4.pack(side='bottom')\u000a        self._Frame19 = Frame(self._Frame4)\u000a        self._Frame19.pack(side='top')\u000a        self._Frame14 = Frame(self._Frame4)\u000a        self._Frame14.pack(side='top')\u000a        self._label_Rcvd_Text = Label(self._Frame14,text='\u041f\u0440\u0438\u043d\u044f\u0442\u043e:')\u000a        self._label_Rcvd_Text.pack(side='top')\u000a        self._ReceivedText = Text(self._Frame14\u000a            ,font=('@Arial Unicode MS', 10, 'bold'),height='35')\u000a        self._ReceivedText.pack(side='top')\u000a        self._Frame9 = Frame(self._Frame4)\u000a        self._Frame9.pack(fill='x',side='top')\u000a        self._Label3 = Label(self._Frame9,text='\u041f\u0435\u0440\u0432\u044b\u0439 \u043d\u043e\u043c\u0435\u0440')\u000a        self._Label3.pack(side='left')\u000a        self._first_num = Entry(self._Frame9,textvariable=self.entry_first_num)\u000a        self._first_num.pack(side='left')\u000a        self._Label5 = Label(self._Frame9,text='\u041f\u043e\u0441\u043b\u0435\u0434\u043d\u0438\u0439 \u043d\u043e\u043c\u0435\u0440')\u000a        self._Label5.pack(side='left')\u000a        self._last_num = Entry(self._Frame9,textvariable=self.entry_last_num)\u000a        self._last_num.pack(side='left')\u000a        self._dev_remove_list = Button(self._Frame9\u000a            ,command=self._on__dev_remove_list_command,state='disabled'\u000a            ,text='dev remove')\u000a        self._dev_remove_list.pack(anchor='w',side='left')\u000a        self._Frame8 = Frame(self._Frame5)\u000a        self._Frame8.pack(side='left')\u000a        self._serialnumber = Entry(self._Frame8,textvariable=self.serial_number)\u000a        self._serialnumber.pack(side='right')\u000a        self._Frame7 = Frame(self._Frame5)\u000a        self._Frame7.pack(side='left')\u000a        self._increment = Button(self._Frame7\u000a            ,command=self._on__increment_command,state='disabled',text='"+1"')\u000a        self._increment.pack(side='left')\u000a        self._Frame31 = Frame(self._Frame19)\u000a        self._Frame31.pack(expand='yes',fill='x',side='left')\u000a        self._text_to_send = Entry(self._Frame31,textvariable=self.text_to_send)\u000a        self._text_to_send.pack(side='top')\u000a        self._send = Button(self._Frame31,command=self._on__send_command\u000a            ,state='disabled',text='\u041e\u0442\u043f\u0440\u0430\u0432\u0438\u0442\u044c \u043d\u0430 \u0443\u0441\u0442\u0440\u043e\u0439\u0441\u0442\u0432\u043e \u043a\u043e\u043c\u0430\u043d\u0434\u0443')\u000a        self._send.pack(fill='x',side='top')\u000a        self._Frame30 = Frame(self._Frame19)\u000a        self._Frame30.pack(expand='yes',fill='x',side='left')\u000a        self._text_to_send2 = Entry(self._Frame30\u000a            ,textvariable=self.text_to_send2)\u000a        self._text_to_send2.pack(side='top')\u000a        self._send2 = Button(self._Frame30,command=self._on__send2_command\u000a            ,state='disabled',text='\u041e\u0442\u043f\u0440\u0430\u0432\u0438\u0442\u044c \u043d\u0430 \u0443\u0441\u0442\u0440\u043e\u0439\u0441\u0442\u0432\u043e \u043a\u043e\u043c\u0430\u043d\u0434\u0443')\u000a        self._send2.pack(side='top')\u000a
p72
aS'        #\n        #Your code here\n        #\n        \n        self._CassList.insert(0, "10.0.0.7")\n        self._CassList.selection_set(0)\n        \n\n        self.serial_number.set(\'20453\')\n        self.entry_first_num.set(\'20501\')\n        self.entry_last_num.set(\'20510\')\n\n        self.text_to_send.set(str("list"))\n        self.text_to_send2.set(str("dev list"))\n        \n\n\n  \n        \n'
p73
aS'    #\n    #Start of event handler methods\n    #\n'
p74
aS'\n'
aS'\n    def _on__SSH_connect_command(self'
p75
aV,Event=None):\u000a        global connected\u000a        global client\u000a        global ssh\u000a        \u000a        try:\u000a            client = paramiko.SSHClient()\u000a            client.set_missing_host_key_policy(paramiko.AutoAddPolicy())\u000a            client.connect(hostname=self._CassList.get(self._CassList.curselection()), username='root', password='talnakh', port=22)\u000a            ssh= client.invoke_shell()\u000a         \u000a            \u000a            connected=1\u000a            \u000a            \u000a            self._SSH_connect.config(state='disabled')\u000a            self._send.config(state="normal")\u000a            self._send2.config(state="normal")\u000a            self._dev_add.config(state="normal")\u000a            self._pos_tst.config(state="normal")\u000a            self._dev_remove.config(state="normal")\u000a            self._dev_remove_list.config(state="normal")\u000a            self._increment.config(state="normal")\u000a            \u000a        except:            \u000a            connected=0\u000a            mbox.showerror("\u041e\u0448\u0438\u0431\u043a\u0430", "\u041d\u0435 \u0443\u0434\u0430\u043b\u043e\u0441\u044c \u043f\u043e\u0434\u043a\u043b\u044e\u0447\u0438\u0442\u044c\u0441\u044f \u043a \u043a\u0430\u0441\u0441\u0435\u0442\u0435")  \u000a     \u000a
p76
aS'\n    def _on__dev_add(self'
p77
aS",Event=None):\n        sshsend('dev add '+ self.serial_number.get() + ' ' + last_octet_ip())\n        \n"
p78
aS'\n    def _on__dev_remove_command(self'
p79
aS",Event=None):\n        sshsend('dev rm '+self.serial_number.get())\n"
p80
aS'\n    def _on__dev_remove_list_command(self'
p81
aS",Event=None):\n        for i in range(int(self.entry_first_num.get()),int(self.entry_last_num.get())+1):\n            sshsend('dev rm '+str(i))\n"
p82
aS'\n    def _on__increment_command(self'
p83
aS',Event=None):\n        self.serial_number.set(int(self.serial_number.get())+1)\n'
p84
aS'\n    def _on__pos_tst_command(self'
p85
aS",Event=None):\n\n              os.system('start cmd /K C:/horizon_test/lsr1_test/pos_tst.exe 10.0.3.'+last_octet_ip()+' '+self.serial_number.get())\n\n\n\n          \n"
p86
aS'\n    def _on__send2_command(self'
p87
aS',Event=None):\n            sshsend(self._text_to_send2.get())\n'
p88
aS'\n    def _on__send_command(self'
p89
aS',Event=None):      \n            sshsend(self._text_to_send.get())\n\n        \n\n'
p90
aS'    #\n    #Start of non-Rapyd user code\n    #\n'
p91
aS''
asg7
I0
sg46
I8629887
ssg29
(lp92
(dp93
S'ModuleName'
p94
S'Tkinter'
p95
sg51
g33
sS'WidgetName'
p96
S'Frame'
p97
sS'PackOptions'
p98
(lp99
sg24
(I0
tp100
sS'XY'
p101
(I0
I0
tp102
sS'Bindings'
p103
(lp104
sS'Options'
p105
(lp106
sa(dp107
g94
S'Tkinter'
p108
sg51
S'_CassList'
p109
sg96
S'Listbox'
p110
sg98
(lp111
sg24
Nsg101
(lp112
I1851
aI568
asg103
(lp113
sg105
(lp114
(dp115
g51
S'selectmode'
p116
sS'Value'
p117
S'single'
p118
sS'Extra'
p119
Nsasa(dp120
g94
S'Tkinter'
p121
sg51
S'_Frame1'
p122
sg96
S'Frame'
p123
sg98
(lp124
(dp125
g51
S'fill'
p126
sg117
S'x'
sasg24
(I0
I0
I3
tp127
sg101
g102
sg103
(lp128
sg105
(lp129
sa(dp130
g94
S'Tkinter'
p131
sg51
S'_Frame14'
p132
sg96
S'Frame'
p133
sg98
(lp134
sg24
(I0
I1
I2
tp135
sg101
g102
sg103
(lp136
sg105
(lp137
sa(dp138
g94
S'Tkinter'
p139
sg51
S'_Frame19'
p140
sg96
S'Frame'
p141
sg98
(lp142
sg24
(I0
I1
I1
tp143
sg101
g102
sg103
(lp144
sg105
(lp145
sa(dp146
g94
S'Tkinter'
p147
sg51
S'_Frame2'
p148
sg96
S'Frame'
p149
sg98
(lp150
(dp151
g51
g126
sg117
S'y'
sasg24
(I0
I0
tp152
sg101
g102
sg103
(lp153
sg105
(lp154
sa(dp155
g94
S'Tkinter'
p156
sg51
S'_Frame27'
p157
sg96
S'Frame'
p158
sg98
(lp159
sg24
(I0
I0
I0
tp160
sg101
g102
sg103
(lp161
sg105
(lp162
sa(dp163
g94
g139
sg51
S'_Frame29'
p164
sg96
g141
sg98
(lp165
sg24
(I0
I1
I0
tp166
sg101
g102
sg103
(lp167
sg105
(lp168
sa(dp169
g94
S'Tkinter'
p170
sg51
S'_Frame3'
p171
sg96
S'Frame'
p172
sg98
(lp173
sg24
(I0
I2
tp174
sg101
g102
sg103
(lp175
sg105
(lp176
sa(dp177
g94
g139
sg51
S'_Frame30'
p178
sg96
g141
sg98
(lp179
(dp180
g51
S'expand'
p181
sg117
S'yes'
p182
sa(dp183
g51
g126
sg117
S'x'
sasg24
(I0
I1
I1
I1
tp184
sg101
g102
sg103
(lp185
sg105
(lp186
sa(dp187
g94
g139
sg51
S'_Frame31'
p188
sg96
g141
sg98
(lp189
(dp190
g51
g181
sg117
g182
sa(dp191
g51
g126
sg117
S'x'
sasg24
(I0
I1
I1
I0
tp192
sg101
g102
sg103
(lp193
sg105
(lp194
sa(dp195
g94
g170
sg51
S'_Frame4'
p196
sg96
g172
sg98
(lp197
(dp198
g51
g126
sg117
S'y'
sasg24
(I0
I1
tp199
sg101
g102
sg103
(lp200
sg105
(lp201
(dp202
g51
S'background'
p203
sg117
S'c:#dbdbdb'
p204
sg119
Nsasa(dp205
g94
g121
sg51
S'_Frame5'
p206
sg96
g123
sg98
(lp207
sg24
(I0
I0
I2
tp208
sg101
g102
sg103
(lp209
sg105
(lp210
sa(dp211
g94
g121
sg51
S'_Frame6'
p212
sg96
g123
sg98
(lp213
sg24
(I0
I0
I1
tp214
sg101
g102
sg103
(lp215
sg105
(lp216
sa(dp217
g94
g121
sg51
S'_Frame7'
p218
sg96
g123
sg98
(lp219
sg24
(I0
I0
I2
I1
tp220
sg101
g102
sg103
(lp221
sg105
(lp222
sa(dp223
g94
g121
sg51
S'_Frame8'
p224
sg96
g123
sg98
(lp225
sg24
(I0
I0
I2
I0
tp226
sg101
g102
sg103
(lp227
sg105
(lp228
sa(dp229
g94
g131
sg51
S'_Frame9'
p230
sg96
g133
sg98
(lp231
(dp232
g51
g126
sg117
S'x'
sasg24
(I0
I1
I3
tp233
sg101
g102
sg103
(lp234
sg105
(lp235
sa(dp236
g94
S'Tkinter'
p237
sg51
S'_Label1'
p238
sg96
S'Label'
p239
sg98
(lp240
sg24
Nsg101
(lp241
I1863
aI206
asg103
(lp242
sg105
(lp243
(dp244
g51
S'text'
p245
sg117
V\u0412\u044b\u0431\u0435\u0440\u0435\u0442\u0435 \u043a\u0430\u0441\u0441\u0435\u0442\u0443
p246
sg119
Nsasa(dp247
g94
S'Tkinter'
p248
sg51
S'_Label2'
p249
sg96
S'Label'
p250
sg98
(lp251
sg24
Nsg101
(lp252
I1869
aI2225
asg103
(lp253
sg105
(lp254
(dp255
g51
g245
sg117
VMAC \u041b\u0421\u04201:
p256
sg119
Nsasa(dp257
g94
S'Tkinter'
p258
sg51
S'_Label3'
p259
sg96
S'Label'
p260
sg98
(lp261
sg24
Nsg101
(lp262
I3343
aI5683
asg103
(lp263
sg105
(lp264
(dp265
g51
g245
sg117
V\u041f\u0435\u0440\u0432\u044b\u0439 \u043d\u043e\u043c\u0435\u0440
p266
sg119
Nsasa(dp267
g94
S'Tkinter'
p268
sg51
S'_Label4'
p269
sg96
S'Label'
p270
sg98
(lp271
sg24
Nsg101
(lp272
I4684
aI1330
asg103
(lp273
sg105
(lp274
(dp275
g51
g245
sg117
V\u0412\u0432\u0435\u0434\u0438\u0442\u0435 \u043a\u043e\u043c\u0430\u043d\u0434\u0443 \u0434\u043b\u044f \u043e\u0442\u043f\u0440\u0430\u0432\u043a\u0438:
p276
sg119
Nsasa(dp277
g94
g258
sg51
S'_Label5'
p278
sg96
g260
sg98
(lp279
sg24
Nsg101
(lp280
I4144
aI5719
asg103
(lp281
sg105
(lp282
(dp283
g51
g245
sg117
V\u041f\u043e\u0441\u043b\u0435\u0434\u043d\u0438\u0439 \u043d\u043e\u043c\u0435\u0440
p284
sg119
Nsasa(dp285
g94
g237
sg51
S'_ReceivedText'
p286
sg96
S'Text'
p287
sg98
(lp288
sg24
Nsg101
(lp289
I5164
aI5042
asg103
(lp290
sg105
(lp291
(dp292
g51
S'height'
p293
sg117
S'n:35'
p294
sg119
Nsa(dp295
g51
S'font'
p296
sg117
(S'@Arial Unicode MS'
I10
S'bold'
tp297
sg119
Nsasa(dp298
g94
g237
sg51
S'_SSH_connect'
p299
sg96
S'Button'
p300
sg98
(lp301
sg24
Nsg101
(lp302
I1863
aI931
asg103
(lp303
sg105
(lp304
(dp305
g51
S'text'
p306
sg117
V\u041f\u043e\u0434\u043a\u043b\u044e\u0447\u0438\u0442\u044c\u0441\u044f
p307
sg119
Nsa(dp308
g51
S'command'
p309
sg117
S'_on__SSH_connect_command'
p310
sg119
I1
sasa(dp311
g94
g237
sg51
S'_dev_add'
p312
sg96
g300
sg98
(lp313
(dp314
g51
g126
sg117
S'x'
sasg24
Nsg101
(lp315
I1851
aI3543
asg103
(lp316
sg105
(lp317
(dp318
g51
g306
sg117
V\u042d\u0442\u0430\u043f 1 dev add
p319
sg119
Nsa(dp320
g51
S'state'
p321
sg117
S'disabled'
p322
sg119
Nsa(dp323
g51
g309
sg117
S'_on__dev_add'
p324
sg119
I1
sasa(dp325
g94
S'Tkinter'
p326
sg51
g52
sg96
S'Button'
p327
sg98
(lp328
(dp329
g51
g126
sg117
S'x'
sasg24
Nsg101
(lp330
I1839
aI4498
asg103
(lp331
sg105
(lp332
(dp333
g51
g306
sg117
V\u042d\u0442\u0430\u043f 3 dev remove
p334
sg119
Nsa(dp335
g51
g321
sg117
S'disabled'
p336
sg119
Nsa(dp337
g51
g309
sg117
S'_on__dev_remove_command'
p338
sg119
I1
sasa(dp339
g94
S'Tkinter'
p340
sg51
S'_dev_remove_list'
p341
sg96
S'Button'
p342
sg98
(lp343
(dp344
g51
S'anchor'
p345
sg117
S'w'
sasg24
Nsg101
(lp346
I4994
aI5719
asg103
(lp347
sg105
(lp348
(dp349
g51
g306
sg117
S'dev remove'
p350
sg119
Nsa(dp351
g51
g321
sg117
S'disabled'
p352
sg119
Nsa(dp353
g51
g309
sg117
S'_on__dev_remove_list_command'
p354
sg119
I1
sasa(dp355
g94
S'Tkinter'
p356
sg51
S'_first_num'
p357
sg96
S'Entry'
p358
sg98
(lp359
sg24
Nsg101
(lp360
I3799
aI5744
asg103
(lp361
sg105
(lp362
(dp363
g51
S'textvariable'
p364
sg117
S'entry_first_num'
p365
sg119
S's.as'
p366
sasa(dp367
g94
g326
sg51
S'_increment'
p368
sg96
g327
sg98
(lp369
sg24
Nsg101
(lp370
I2251
aI3108
asg103
(lp371
sg105
(lp372
(dp373
g51
g306
sg117
S'"+1"'
p374
sg119
Nsa(dp375
g51
g321
sg117
g336
sg119
Nsa(dp376
g51
g309
sg117
S'_on__increment_command'
p377
sg119
I1
sasa(dp378
g94
g237
sg51
S'_label_Rcvd_Text'
p379
sg96
g239
sg98
(lp380
sg24
Nsg101
(lp381
I5194
aI4450
asg103
(lp382
sg105
(lp383
(dp384
g51
g245
sg117
V\u041f\u0440\u0438\u043d\u044f\u0442\u043e:
p385
sg119
Nsasa(dp386
g94
g326
sg51
S'_last_num'
p387
sg96
S'Entry'
p388
sg98
(lp389
sg24
Nsg101
(lp390
I4569
aI5732
asg103
(lp391
sg105
(lp392
(dp393
g51
g364
sg117
S'entry_last_num'
p394
sg119
S's.as'
p395
sasa(dp396
g94
g326
sg51
S'_pos_tst'
p397
sg96
g327
sg98
(lp398
(dp399
g51
g126
sg117
S'x'
sasg24
Nsg101
(lp400
I1857
aI4075
asg103
(lp401
sg105
(lp402
(dp403
g51
g306
sg117
V\u042d\u0442\u0430\u043f 2 pos tst
p404
sg119
Nsa(dp405
g51
g309
sg117
S'_on__pos_tst_command'
p406
sg119
I1
sasa(dp407
g94
g237
sg51
S'_send'
p408
sg96
g300
sg98
(lp409
(dp410
g51
g126
sg117
S'x'
sasg24
Nsg101
(lp411
I3987
aI2938
asg103
(lp412
sg105
(lp413
(dp414
g51
g306
sg117
V\u041e\u0442\u043f\u0440\u0430\u0432\u0438\u0442\u044c \u043d\u0430 \u0443\u0441\u0442\u0440\u043e\u0439\u0441\u0442\u0432\u043e \u043a\u043e\u043c\u0430\u043d\u0434\u0443
p415
sg119
Nsa(dp416
g51
g321
sg117
S'disabled'
p417
sg119
Nsa(dp418
g51
g309
sg117
S'_on__send_command'
p419
sg119
I1
sasa(dp420
g94
S'Tkinter'
p421
sg51
S'_send2'
p422
sg96
S'Button'
p423
sg98
(lp424
sg24
Nsg101
(lp425
I4703
aI2963
asg103
(lp426
sg105
(lp427
(dp428
g51
g306
sg117
V\u041e\u0442\u043f\u0440\u0430\u0432\u0438\u0442\u044c \u043d\u0430 \u0443\u0441\u0442\u0440\u043e\u0439\u0441\u0442\u0432\u043e \u043a\u043e\u043c\u0430\u043d\u0434\u0443
p429
sg119
Nsa(dp430
g51
g321
sg117
S'disabled'
p431
sg119
Nsa(dp432
g51
g309
sg117
S'_on__send2_command'
p433
sg119
I1
sasa(dp434
g94
g237
sg51
S'_serialnumber'
p435
sg96
S'Entry'
p436
sg98
(lp437
sg24
Nsg101
(lp438
I1851
aI3132
asg103
(lp439
sg105
(lp440
(dp441
g51
g364
sg117
S'serial_number'
p442
sg119
S's.as'
p443
sasa(dp444
g94
g237
sg51
S'_text_to_send'
p445
sg96
g436
sg98
(lp446
sg24
Nsg101
(lp447
I3981
aI2189
asg103
(lp448
sg105
(lp449
(dp450
g51
g364
sg117
S'text_to_send'
p451
sg119
S's.as'
p452
sasa(dp453
g94
g421
sg51
S'_text_to_send2'
p454
sg96
S'Entry'
p455
sg98
(lp456
sg24
Nsg101
(lp457
I4678
aI2201
asg103
(lp458
sg105
(lp459
(dp460
g51
g364
sg117
S'text_to_send2'
p461
sg119
S's.as'
p462
sasasS'BaseClass'
p463
g54
sg34
I1
sasS'VisibleForm'
p464
g35
sS'SelectedForm'
p465
g35
sg51
g6
sa.